(dp0
S'cord'
p1
(dp2
S'cord'
p3
(lp4
S' bringing them to land with line s in the <unknown> below'
p5
aS' . many hands grabbed the line from the panting cook .'
p6
aS' ! <unknown> up the dry line and stand <unknown> , rod'
p7
aS' <unknown> , reeling in his line . end end end end'
p8
aS' <unknown> float , with rawhide line attached , over and beyond'
p9
aS' . then he threw the line back into the <unknown> .'
p10
aS' letting the boats down with line s . end end end'
p11
aS' at the end of his line . " end end end'
p12
aS' the water , snaked out line s , and men bent'
p13
aS' , a <unknown> had spring line s bent to his anchor'
p14
aS' own <unknown> had baited a line and apparently hooked a massive'
p15
aS' at the end of a line attached to a <unknown> .'
p16
aS' <unknown> <unknown> . with his line out and his pole <unknown>'
p17
aS' , even the best safety line s had been known to'
p18
aS' of space , his safety line <unknown> behind him . end'
p19
aS' who has only a light line to land a large fish'
p20
aS' third we let down with line s . end end end'
p21
aS' ship above him . a line was <unknown> down to the'
p22
aS' let our boats down with line s . end end end'
p23
aS' <unknown> <unknown> . with a line tied to its <unknown> ,'
p24
aS' long and you hold the line <unknown> in your <unknown> ,'
p25
aS' and took out a long line with several <unknown> tied to'
p26
aS' we showed him the exercise line . end end end end'
p27
aS' major <unknown> <unknown> down the line to fill out the crew'
p28
aS' gear , and bait the line s . end end end'
p29
aS' stopped <unknown> and weighted his line s with a rock ,'
p30
aS' them like fish on a line . end end end end'
p31
aS' struggled to position the heavy line ; once more the capstan'
p32
aS' . i pulled in my line and went up the bank'
p33
aS' was a tug on the line . end end end end'
p34
aS' horse and handed <unknown> the line s . end end end'
p35
aS' <unknown> which carried his <unknown> line to the <unknown> , and'
p36
aS' his back and <unknown> his line . end end end end'
p37
aS' and its hanging on the line right now . end end'
p38
aS' than the <unknown> . the line <unknown> from the <unknown> like'
p39
aS' , ready to make the line s fast to the dock'
p40
aS' under the galley . a line was tied under his arms'
p41
aS' on deck to handle the line s . end end end'
p42
aS' into the slack of his line . end end end end'
p43
aS' dock , <unknown> made the line s fast and then helped'
p44
aS' above , holding to the line of the little boat .'
p45
aS' had tied up on a line floating in the water .'
p46
aS' then <unknown> back to her line s to hang a <unknown>'
p47
aS' being caught looking at the line . end end end end'
p48
aS' <unknown> enough to throw a line to the <unknown> . end'
p49
aS' of the <unknown> . the line s were <unknown> secured before'
p50
aS' turned , and the fourth line came reeling in . end'
p51
aS' <unknown> the <unknown> to the line . then <unknown> , who'
p52
asS'division'
p53
(lp54
S' he wasnt <unknown> them . line s had been stretched between'
p55
aS' the <unknown> was <unknown> the line thin where it was tied'
p56
asS'product'
p57
(lp58
S' a <unknown> round the washing line . end end end end'
p59
aS' as some of the tow line s parted . end end'
p60
aS' every <unknown> <unknown> of fish line and fish <unknown> , having'
p61
aS' the end of the safety line , appeared a <unknown> .'
p62
aS' on the <unknown> floor after line s to them are <unknown>'
p63
aS' <unknown> , fetch two <unknown> line s off that wagon .'
p64
asS'text'
p65
(lp66
S' say nothing of plenty of line s . end end end'
p67
aS' , <unknown> , while my line <unknown> again , upon the'
p68
aS' . the <unknown> gave the line an angry <unknown> only to'
p69
aS' start start start start <unknown> line fishermen <unknown> <unknown> , <unknown>'
p70
aS' <unknown> , she lowered the line into the middle of the'
p71
asS'phone'
p72
(lp73
S' was out on the exercise line , <unknown> would <unknown> a'
p74
aS' <unknown> to keep the nylon line taut . end end end'
p75
aS' <unknown> , and if the line were <unknown> thrown , if'
p76
aS' in <unknown> me secure a line to the tail . end'
p77
aS' on the <unknown> , carrying line s and tackle . end'
p78
aS' on deck . while one line was fastened around a cleat'
p79
asS'formation'
p80
(lp81
S' , a steep <unknown> of line without <unknown> <unknown> , an'
p82
aS' <unknown> were made fast and line s <unknown> to the men'
p83
aS' began pulling in a long line he was trailing behind the'
p84
aS' as he <unknown> <unknown> and line s behind him . end'
p85
aS' <unknown> of throwing a weighted line into the <unknown> . end'
p86
aS' . <unknown> <unknown> in the line . end end end end'
p87
aS' now <unknown> with a long line and tied all three <unknown>'
p88
assS'division'
p89
(dp90
S'cord'
p91
(lp92
S' carries the play over the line from <unknown> to <unknown> .'
p93
aS' a <unknown> over the <unknown> line and <unknown> around , and'
p94
asS'division'
p95
(lp96
S' have to walk a thin line between being too tight and'
p97
aS' said . " drawing the line between <unknown> state regulation of'
p98
aS' a very , very fine line for some time , "'
p99
aS' . " some draw the line at far more <unknown> <unknown>'
p100
aS' it as such . the line between <unknown> and <unknown> food'
p101
aS' recently , there was a line between <unknown> that had sex'
p102
aS' he says he crossed the line into <unknown> without even <unknown>'
p103
aS' , " theres a hair line difference between <unknown> and <unknown>'
p104
aS' . <unknown> thinks a <unknown> line will be drawn in the'
p105
aS' court was split along ideological line s , with five judges'
p106
aS' . acquisitions , <unknown> the line between what is a friendly'
p107
aS' <unknown> . " drawing the line is <unknown> business , but'
p108
aS' <unknown> set <unknown> blurs the line between <unknown> and <unknown> for'
p109
aS' <unknown> <unknown> who walk the line between <unknown> and <unknown> while'
p110
aS' funds , this crosses the line of political <unknown> . "'
p111
aS' . . . where a line is drawn where the individual'
p112
aS' practice , however , the line between interpretation and <unknown> of'
p113
aS' has been walking a fine line in the <unknown> period between'
p114
aS' <unknown> where to draw the line . end end end end'
p115
aS' the <unknown> to draw a line against the <unknown> economic <unknown>'
p116
aS' consultants who work across industry line s will confirm that the'
p117
aS' in court -- the hazy line between whats fair and whats'
p118
aS' , shearson stepped over the line investment banks have long considered'
p119
aS' didnt draw a sharp enough line between <unknown> and <unknown> <unknown>'
p120
aS' local <unknown> . as the line s between <unknown> <unknown> and'
p121
aS' he stepped across traditional <unknown> line s . end end end'
p122
aS' says , " because the line between the public and private'
p123
aS' group must walk a fine line with the <unknown> . end'
p124
aS' when it moves over the line of giving advice to making'
p125
aS' the <unknown> home . the line between me and the youth'
p126
aS' as the attorneys cross the line between law and medicine ,'
p127
aS' sports <unknown> maintain that the line between <unknown> and <unknown> exercise'
p128
aS' circuit is split along partisan line s , with reagan <unknown>'
p129
aS' mean ? where was the line between <unknown> and <unknown> ?'
p130
aS' own <unknown> . drawing a line between military aid and military'
p131
aS' <unknown> " its a fine line distinction , and ultimately a'
p132
aS' " perfectly straddled the fine line between being fainthearted and cutting'
p133
aS' the <unknown> said , the line between life and <unknown> .'
p134
aS' . in vietnam , the line s between the military and'
p135
aS' we need . where the line gets drawn is always a'
p136
aS' at a time when the line between personal computers and workstations'
p137
aS' . others <unknown> along political line s . end end end'
p138
aS' . " thats a fine line across which one shouldnt pass'
p139
aS' ever done was draw the line between possible and <unknown> <unknown>'
p140
aS' <unknown> often walks a thin line between a television <unknown> and'
p141
aS' in <unknown> . sometimes the line between <unknown> and <unknown> dumb'
p142
aS' where there is a fine line between aggressive market research and'
p143
aS' " shows tread the fine line between <unknown> and <unknown> .'
p144
aS' or whether to draw a line between amounts worth worrying about'
p145
aS' are always walking the fine line of <unknown> <unknown> . end'
p146
aS' say there is a fine line between <unknown> <unknown> trading and'
p147
aS' " there is a fine line between <unknown> and fiction .'
p148
aS' you walk a very fine line between <unknown> your <unknown> of'
p149
aS' from mail-order catalogs as the line between them blurs . end'
p150
aS' <unknown> <unknown> in which the line s between " high "'
p151
aS' <unknown> <unknown> can <unknown> the line between inexpensive financing and an'
p152
aS' you have to draw the line , " says sister joy'
p153
aS' his presence reflected the <unknown> line between air force and state'
p154
asS'product'
p155
(lp156
S' " that goes beyond the line of <unknown> , sir !'
p157
aS' . <unknown> has <unknown> tribal line s . end end end'
p158
aS' have carefully <unknown> crossing other line s drawn by the u'
p159
aS' <unknown> hasnt followed strictly sectarian line s . end end end'
p160
aS' japanese to cross that white line , " says j .'
p161
aS' also <unknown> <unknown> on <unknown> line s , rather than according'
p162
aS' contributed to the markets dec line . many fund managers --'
p163
aS' . theres a real delicate line there , and its hard'
p164
aS' third -- of total air line passengers , and tobacco <unknown>'
p165
aS' <unknown> , <unknown> and <unknown> line s . end end end'
p166
asS'text'
p167
(lp168
S' the public , theres a line . most of these groups'
p169
aS' may be walking a <unknown> line by <unknown> so much <unknown>'
p170
asS'phone'
p171
(lp172
S' more typically split along <unknown> line s than the <unknown> .'
p173
asS'formation'
p174
(lp175
S' . the park draws the line at <unknown> in <unknown> as'
p176
assS'product'
p177
(dp178
S'cord'
p179
(lp180
S' group , <unknown> a high-end line , rolled out a <unknown>'
p181
aS' " when they introduce a line , it will <unknown> out'
p182
aS' concentrate on a few main line s and possibly <unknown> on'
p183
aS' revamped version of the dbase line . end end end end'
p184
aS' " i made a similar line and i produced it cheaper'
p185
aS' history based on the <unknown> line . end end end end'
p186
asS'division'
p187
(lp188
S' that it was selling the line s because further development of'
p189
asS'product'
p190
(lp191
S' end of ibms new ps/2 line -- the company faces stiff'
p192
aS' , will complement its existing line of radio <unknown> <unknown> ,'
p193
aS' of packages of the <unknown> line of contraceptives may be <unknown>'
p194
aS' will be a <unknown> complete line of our most upscale products'
p195
aS' of beatrice <unknown> . nonfood line s in july . end'
p196
aS' its masters of the universe line of toys was one <unknown>'
p197
aS' <unknown> about <unknown> of his line to <unknown> and <unknown> for'
p198
aS' luxury-car market by selling a line of upscale cars through a'
p199
aS' smith to <unknown> a new line of womens wear designed to'
p200
aS' will make and sell a line of <unknown> <unknown> footwear .'
p201
aS' , <unknown> sold <unknown> specialty-chemical line , to <unknown> <unknown> .'
p202
aS' it <unknown> -- mainly <unknown> line s -- mr . <unknown>'
p203
aS' world . the new ibm line <unknown> <unknown> in recent months'
p204
aS' toys and other well-known toy line s . end end end'
p205
aS' <unknown> to <unknown> a new line of <unknown> paper thats geared'
p206
aS' million and a basic chemicals line from <unknown> chemical industries <unknown>'
p207
aS' new <unknown> systems to its line of disk drives for mainframe'
p208
aS' changes and that ibms new line " doesnt offer any major'
p209
aS' charge of the 3b minicomputer line , <unknown> <unknown> in january'
p210
aS' in its new personal computer line . end end end end'
p211
aS' its 1989 car and truck line s . end end end'
p212
aS' is part of a new line of <unknown> accessories created by'
p213
aS' experience is <unknown> in <unknown> line s , has done a'
p214
aS' created for ibms personal computer line . end end end end'
p215
aS' parts in <unknown> current computer line . end end end end'
p216
aS' said it revamped its wheelwriter line of typewriters , with the'
p217
aS' the computer companys new <unknown> line use a microchip that intel'
p218
aS' of its own . a line of machines for home use'
p219
aS' record for its nfl merchandise line called team nfl . <unknown>'
p220
aS' still , the new fashion line doesnt appeal to everyone .'
p221
aS' the <unknown> in ibms ps/2 line that it has <unknown> heavily'
p222
aS' growth was <unknown> by soft line s , " said <unknown>'
p223
aS' . is <unknown> its entire line of spices and seasonings ,'
p224
aS' enhanced its general-purpose mainframe computer line with four <unknown> machines <unknown>'
p225
aS' the cash in its existing line s . end end end'
p226
aS' <unknown> also acquired the <unknown> line of frozen <unknown> and <unknown>'
p227
aS' on its more lucrative military line s of computer products .'
p228
aS' based on the sparc microprocessor line from <unknown> microsystems inc .'
p229
aS' computer inc . s macintosh line includes a file called "'
p230
aS' completely refreshed the entire mainframe line . " end end end'
p231
aS' of its car and truck line s . end end end'
p232
aS' said , <unknown> shedding some line s and perhaps adding others'
p233
aS' products , which include major line s of spices and <unknown>'
p234
aS' chicago-based <unknown> launched its mckids line of childrens clothing under an'
p235
aS' disease , recently introduced a line of <unknown> balloon <unknown> catheters'
p236
aS' to sell the initial <unknown> line for three years , the'
p237
aS' start start start the new line <unknown> the ibm system <unknown>'
p238
aS' plans to unveil today a line of computer systems for retailers'
p239
aS' the <unknown> <unknown> natural <unknown> line . end end end end'
p240
aS' as the <unknown> expands its line to <unknown> brands , including'
p241
aS' is negotiating to license a line of clothing created by a'
p242
aS' which <unknown> and <unknown> a line of specialized beds for the'
p243
aS' cash <unknown> and a compatible line of prescription-drug products . end'
p244
aS' <unknown> models in ibms ps/2 line " by the end of'
p245
aS' <unknown> <unknown> across its model line to balance expected demand with'
p246
aS' of one of its vectra line of office personal computers "'
p247
aS' . said it upgraded its line of <unknown> computers . end'
p248
aS' " <unknown> of its preschool line s . end end end'
p249
aS' customers and dealers because its line 2 machines also may compete'
p250
aS' retail stores . the companys line of infant and preschool products'
p251
aS' , especially gift and jewelry line s , were below expectations'
p252
aS' <unknown> to <unknown> . <unknown> line of frozen breakfasts called <unknown>'
p253
aS' strong performance <unknown> its st line of computers is <unknown> itself'
p254
aS' businesses and <unknown> from specialty line s and acquisitions . end'
p255
aS' <unknown> and to discontinued merchandise line s will result in a'
p256
aS' , which makes a broad line of <unknown> furniture under the'
p257
aS' on <unknown> toys and boys line s . end end end'
p258
aS' <unknown> , who created a line of classic womens clothing ,'
p259
aS' and remaining <unknown> technology products line s . end end end'
p260
aS' begin <unknown> of a new line of mid-size cars late next'
p261
aS' has <unknown> all of its line , " said <unknown> a'
p262
aS' masters of the universe " line of toys are still very'
p263
aS' start start <unknown> also dec line s comment . <unknown> ,'
p264
aS' that will make its current line of mainframes run a bit'
p265
aS' . <unknown> recently introduced a line of <unknown> <unknown> <unknown> that'
p266
aS' core <unknown> and professional <unknown> line s , which are primarily'
p267
aS' makes and sells a complete line of drilling and production equipment'
p268
aS' the acquisition is amcs jeep line , which served the <unknown>'
p269
aS' limit the number of car line s produced in that country'
p270
aS' be <unknown> to produce a line of recently introduced 35mm cameras'
p271
aS' software in its new pc line . end end end end'
p272
aS' new products if they are line extensions with familiar brand names'
p273
aS' for ibms new personal <unknown> line . end end end end'
p274
aS' this january with a new line of midsize <unknown> the eagle'
p275
aS' which then was <unknown> principal line of business . the climb'
p276
aS' . , including its <unknown> line . end end end end'
p277
aS' children on <unknown> . a line of <unknown> characters is <unknown>'
p278
aS' version of the <unknown> x-mp line and comes with four million'
p279
aS' , for <unknown> , a line of <unknown> <unknown> products aimed'
p280
aS' , which introduced its <unknown> line of mid-range computers as expected'
p281
aS' away from some of the line s that brought it out'
p282
aS' 1986 results <unknown> significant dec line s in sales of <unknown>'
p283
aS' systems unit and several smaller line s to sell . end'
p284
aS' <unknown> entry into the economy line has its <unknown> . end'
p285
aS' to unveil today a new line of digital telephone <unknown> hardware'
p286
aS' the family focus for the line is one of the <unknown>'
p287
aS' more powerful . the spectrum line has been under development for'
p288
aS' <unknown> " and a compatible line of prescription-drug products . end'
p289
aS' are responsible for their own line s . ) end end'
p290
aS' its stores in <unknown> a line of appliances made by <unknown>'
p291
aS' <unknown> national <unknown> other <unknown> line s into <unknown> . end'
p292
aS' <unknown> promotion is a new line of chevrolet pickup trucks .'
p293
aS' workstations in its popular vax line that will make the company'
p294
aS' . <unknown> said all its line s were profitable in the'
p295
aS' " while thats a valuable line , its less than <unknown>'
p296
aS' . by shedding the <unknown> line , bally could focus on'
p297
aS' acquisition of the spice island line of spices , herbs and'
p298
aS' machines corp . s ps/2 line s of computers . end'
p299
aS' defense <unknown> and aircraft products line s ; building systems ,'
p300
aS' <unknown> push for its <unknown> line of dinosaur action figures .'
p301
aS' action , his <unknown> clothing line s and the <unknown> books'
p302
aS' <unknown> replace its existing product line , will take up far'
p303
aS' <unknown> access to a broad line of parts that it could'
p304
aS' inc . , introduced a line called <unknown> <unknown> and is'
p305
aS' brand names , and a line of engine additives and performance'
p306
aS' to <unknown> its le menu line . end end end end'
p307
aS' total sales for the three line s at more than <unknown>'
p308
aS' supplement its inexpensive , private-label line of <unknown> tires and to'
p309
aS' for its new personal system/2 line of pcs from <unknown> electric'
p310
aS' graphics on the new ibm line . end end end end'
p311
aS' of the members only sportswear line , for <unknown> <unknown> .'
p312
aS' sell several recently acquired food line s to kraft inc .'
p313
aS' gap didnt promote its <unknown> line s as heavily as it'
p314
aS' considering bringing out its own line of food products containing <unknown>'
p315
aS' it will introduce a new line of <unknown> cars in the'
p316
aS' company further boosted its <unknown> line development staff by 50% ,'
p317
aS' difficulties with its personal computer line <unknown> , and was hurt'
p318
aS' with a loss from continuing line s of <unknown> . 6'
p319
aS' universe and rainbow brite toy line s . end end end'
p320
aS' customers more than one cosmetics line <unknown> visit <unknown> efforts to'
p321
aS' , " when the ps/2 line was introduced . end end'
p322
aS' its need for more <unknown> line and focus in its "'
p323
aS' also be producing a new line of convenience <unknown> , which'
p324
aS' where its diaper and <unknown> line s in particular were <unknown>'
p325
aS' corp . in a new line of personal computers . end'
p326
aS' theres the designer cabbage patch line that features dolls <unknown> in'
p327
aS' . s new <unknown> plus line is indeed thin -- some'
p328
aS' and <unknown> out a complete line of <unknown> <unknown> <unknown> that'
p329
aS' which will make a new line of <unknown> <unknown> <unknown> <unknown>'
p330
aS' world to <unknown> to the line it introduced in april .'
p331
aS' range of its <unknown> ii line , providing twice the performance'
p332
aS' is in most of <unknown> line s and <unknown> half of'
p333
aS' <unknown> its entry-level sentra car line by eliminating some models and'
p334
aS' choice to bolster its private-label line back up to 25% ,'
p335
aS' been strong for a new line of <unknown> power supplies designed'
p336
aS' to <unknown> with a new line of pc software , mr'
p337
aS' finally will get a <unknown> line of cars to sell ,'
p338
aS' <unknown> co . s food line s for $235 million .'
p339
aS' two models of its tower line of midrange computers and introduced'
p340
aS' products and wesson cooking oil line s . end end end'
p341
aS' assets , including its toy line s , are worth perhaps'
p342
aS' will continue to sell its line of solid perfumes , disposable'
p343
aS' to give its clarion cosmetics line a new advertising look .'
p344
aS' , unveiled a new low-priced line of instant cameras called <unknown>'
p345
aS' cycle and its personal computer line is up against new products'
p346
aS' finally will introduce its new line of personal computers on thursday'
p347
aS' , all samples from his line of plush toys . like'
p348
aS' dealing in parts for several line s of gas <unknown> for'
p349
aS' the company into a profitable line , his <unknown> <unknown> that'
p350
aS' <unknown> in commercial and military line s . end end end'
p351
aS' , ibms highly successful minicomputer line , is losing its momentum'
p352
aS' name will go on a line of vehicles -- including a'
p353
aS' in principle to acquire a line of fungicides , insecticides and'
p354
aS' and the lawn and garden line s , which typically are'
p355
aS' games , and a new line of disney infant and preschool'
p356
aS' with the idea of a line of inexpensive wines , proprietors'
p357
aS' high <unknown> , as <unknown> line s <unknown> . end end'
p358
aS' factory will make a full line of answering machines . end'
p359
aS' flat sales of olivettis <unknown> line of minicomputers . the new'
p360
aS' . to market a special line of black & <unknown> professional'
p361
aS' and <unknown> its own apparel line s , has been trying'
p362
aS' to acquire the spice islands line of spices , herbs and'
p363
aS' , add to the <unknown> line . end end end end'
p364
aS' to help shed the <unknown> line s . end end end'
p365
aS' , <unknown> products , a line of plastic <unknown> toys from'
p366
aS' of general foods premium culinova line . end end end end'
p367
aS' s " my own " line of portable audio players for'
p368
aS' appliance business and certain consumer line s . end end end'
p369
aS' , major appliances and other line s , <unknown> reported <unknown>'
p370
aS' is really in a new line of <unknown> . end end'
p371
aS' <unknown> . crays bestselling x-mp line was primarily a <unknown> product'
p372
aS' machines corp . s new line of personal system/2 personal computers'
p373
aS' products further extend the companys line of equipment based on the'
p374
aS' to purchase a new <unknown> line of distilled spirits , and'
p375
aS' . would announce a new line of personal computers , tandys'
p376
aS' <unknown> across the whole computer line . end end end end'
p377
aS' million of profit from discontinued line s and a $3 million'
p378
aS' , gm wont launch its line of <unknown> midsized cars until'
p379
aS' cosmetics , acquired the <unknown> line from <unknown> drug products corp'
p380
aS' start start the company dec line d to disclose the potential'
p381
aS' pricing for its new infiniti line . end end end end'
p382
aS' . to push its <unknown> line of toys , <unknown> <unknown>'
p383
aS' all of the companys car line s ; not all 1989'
p384
aS' <unknown> <unknown> of her own line of books . . .'
p385
aS' motorola said that the two line s no longer fit its'
p386
aS' companys helene curtis salon selectives line s , with an advertising'
p387
aS' to sell its consumer products line s so it can concentrate'
p388
aS' add new products to the line , and it is still'
p389
aS' will discontinue its whirlpool brand line of floor-care products by the'
p390
aS' manager who built the companys line of <unknown> scientific computers into'
p391
aS' start start start start the line s last year <unknown> sales'
p392
aS' the concept on one popular line of dolls , but not'
p393
aS' . complaining about a dec line in quality has long been'
p394
aS' <unknown> demand for a new line of mainframes , it has'
p395
aS' addition to <unknown> the <unknown> line , <unknown> last august <unknown>'
p396
aS' <unknown> , the <unknown> <unknown> line and <unknown> <unknown> . end'
p397
aS' its core tobacco and <unknown> line s . end end end'
p398
aS' chemical a new consumer products line . end end end end'
p399
aS' and its the two <unknown> line s that have <unknown> sales'
p400
aS' , adding that the new line s are less involved with'
p401
aS' off workers , shed unprofitable line s , <unknown> <unknown> <unknown>'
p402
aS' company isnt discontinuing any <unknown> line s , mr . <unknown>'
p403
aS' brands aggressive acquisition of consumer-products line s . end end end'
p404
aS' years has built its <unknown> line s through <unknown> acquisitions and'
p405
aS' to the chicago <unknown> own line s . end end end'
p406
aS' production of its profitable jeep line of vehicles 20% in 1989'
p407
aS' are <unknown> that among those line s are <unknown> of charles'
p408
aS' force for <unknown> <unknown> <unknown> line , for instance , dresses'
p409
aS' makes and <unknown> a broad line of <unknown> products for personal'
p410
aS' food with a recently added line of home furnishings in an'
p411
aS' <unknown> acquisitions to its original line of <unknown> and other consumer'
p412
aS' for suppliers of a new line of <unknown> <unknown> <unknown> products'
p413
aS' companys <unknown> apple ii product line , which <unknown> to home'
p414
aS' future <unknown> out a new line of midsized cars for general'
p415
aS' to develop and test a line of refrigerated entrees and <unknown>'
p416
aS' , with responsibility for its line s of boys toys .'
p417
aS' <unknown> <unknown> even <unknown> dec line s as the industry <unknown>'
p418
aS' for the companys residential desk line . end end end end'
p419
aS' legal problem over a new line of its cabbage patch kids'
p420
aS' it currently is testing a line of frozen entrees that includes'
p421
aS' rights to the <unknown> <unknown> line from american cyanamid co .'
p422
aS' new ? " while <unknown> line , <unknown> . -based deere'
p423
aS' we could start a whole line of <unknown> horses , "'
p424
aS' the <unknown> firms popular luggage line s . end end end'
p425
aS' because of discounting in some line s , particularly <unknown> apparel'
p426
aS' <unknown> of the new christmas line <unknown> at trade shows .'
p427
aS' , both commercial and military line s , accounted for 73%'
p428
aS' midrange computers in its vax line , indicating that the company'
p429
aS' and some its smaller specialty-food line s . end end end'
p430
aS' the company <unknown> the dec line on , among other things'
p431
aS' <unknown> into the major appliance line s in which it wants'
p432
aS' inc . , the struggling line was <unknown> . but kraft'
p433
aS' strong sales of its macintosh line of personal computers to the'
p434
aS' the early announcement of the line in <unknown> to ibms new'
p435
aS' <unknown> to extend " the line of informational products <unknown> to'
p436
aS' more of beatrices huge food line s . end end end'
p437
aS' <unknown> to their standard car line s . end end end'
p438
aS' its " action office " line of furniture . that line'
p439
aS' macintosh computer products to its line up eventually , but no'
p440
aS' . <unknown> said the companys line s are strong both in'
p441
aS' it also will launch a line of limited <unknown> that will'
p442
aS' several new products to that line , including a laptop computer'
p443
aS' <unknown> introduction of the <unknown> line is primarily a marketing decision'
p444
aS' associated with its frozen food line . end end end end'
p445
aS' microsystems will unveil today a line of computer workstations it hopes'
p446
aS' <unknown> manufacturing co . s line of <unknown> <unknown> machines and'
p447
aS' . of <unknown> introduced a line of portable audio products designed'
p448
aS' " look to its traditional line of <unknown> <unknown> <unknown> jewelry'
p449
aS' their <unknown> by starting <unknown> line s ; others drop their'
p450
aS' development to introduce a new line of software that <unknown> traditional'
p451
aS' . -- <unknown> into other line s of soviet business ,'
p452
aS' -based kraft , the new line s will boost its market'
p453
aS' will <unknown> the 9370 mid-range line and ibms new line of'
p454
aS' first of gms crucial new line of midsized cars , and'
p455
aS' computer program , to its line of systems management software in'
p456
aS' buy professional services and software line s from <unknown> computers for'
p457
aS' fifth in <unknown> new fiction line of original trade <unknown> fiction'
p458
aS' defense <unknown> and aircraft products line s ; building systems ,'
p459
aS' water to its still water line s . end end end'
p460
aS' . <unknown> sells a specialized line of beds and <unknown> and'
p461
aS' higher earnings across a broad line of its businesses . end'
p462
aS' models of its as/400 minicomputer line and a new release of'
p463
aS' <unknown> in its more profitable line s . end end end'
p464
aS' than its traditional capital equipment line s , " the <unknown>'
p465
aS' prices on its replacement tire line s 2% to 5% effective'
p466
aS' stores , <unknown> the complete line of <unknown> <unknown> and <unknown>'
p467
aS' to make and market <unknown> line of <unknown> lighting products in'
p468
aS' growth rate in the <unknown> line is stronger . end end'
p469
aS' " of its data <unknown> line . end end end end'
p470
aS' start start start the designer line s , of course ,'
p471
aS' . in addition to its line s of athletic footwear --'
p472
aS' wants to <unknown> the <unknown> line of <unknown> from <unknown> <unknown>'
p473
aS' <unknown> of <unknown> slow-growing consumer line s . end end end'
p474
aS' most of the companys model line . end end end end'
p475
aS' . the company tried a line of frozen cheese dinners that'
p476
aS' too slow developing a full line of cookies , with a'
p477
aS' also is <unknown> adding a line , <unknown> products and industrial'
p478
aS' the new " <unknown> " line of hoover <unknown> , due'
p479
aS' <unknown> <unknown> and <unknown> truck line s . end end end'
p480
aS' the results in a new line of <unknown> containers for <unknown>'
p481
aS' its right to sell a line of open-heart surgical catheters in'
p482
aS' " <unknown> with a popular line of <unknown> childrens characters ,'
p483
aS' the company manufactures a diverse line of <unknown> <unknown> products for'
p484
aS' gault said orders for both line s are " very encouraging'
p485
aS' scratchy <unknown> <unknown> or a line of <unknown> wear . end'
p486
aS' as they follow certain guide line s . the <unknown> ,'
p487
aS' on its technology and chemicals line s . end end end'
p488
aS' disney characters on its entire line , mr . <unknown> says'
p489
aS' four-door sedans to the gm-10 line . it is <unknown> two'
p490
aS' test marketing of a new line of skin care products called'
p491
aS' its multimate word processing software line and " <unknown> acceptance "'
p492
aS' <unknown> car in its acura line within the next <unknown> of'
p493
aS' <unknown> addition to the <unknown> line , the last machine mr'
p494
aS' the proprietary series 50 minicomputer line will be able to cut'
p495
aS' also were strong for another line , its <unknown> computers .'
p496
aS' " were developing a new line of skin <unknown> based on'
p497
aS' specialty chain focused around such line s as consumer <unknown> and'
p498
aS' , and its remaining optometric line s , which includes its'
p499
aS' and <unknown> last years <unknown> line up name on this years'
p500
aS' . revenue from the mv line of <unknown> grew , he'
p501
aS' its masters of the universe line of toys . end end'
p502
aS' . s . 1990 model line . end end end end'
p503
aS' said sales of the new line of personal computers were strong'
p504
aS' will <unknown> production of some line s that could more <unknown>'
p505
aS' , <unknown> <unknown> a new line of <unknown> <unknown> designer shoes'
p506
aS' interest in the elizabeth arden line that the <unknown> pharmaceutical concern'
p507
aS' . toyota hopes its upscale line will help it hang on'
p508
aS' . sales of <unknown> apparel line -- including <unknown> wear ,'
p509
aS' unprofitable big <unknown> <unknown> restaurant line as part of its drive'
p510
aS' supply corp . plans a line of <unknown> meals to help'
p511
aS' of the kydex <unknown> <unknown> line last year . end end'
p512
aS' more powerful system to its line of <unknown> minicomputers . end'
p513
aS' european sales of its new line of personal computers . under'
p514
aS' home users . the ibm line , for instance , is'
p515
aS' years . among its newer line s are cookies , frozen'
p516
aS' one of its new toy line s that sounds practically <unknown>'
p517
aS' when its <unknown> game machine line and other <unknown> products <unknown>'
p518
aS' raised prices on its mirage line by <unknown> across the board'
p519
aS' force kraft to sell some line s and would boost its'
p520
aS' two <unknown> make a broad line of computer products , ranging'
p521
aS' start start start the <unknown> line of office chairs is <unknown>'
p522
aS' third car in the eagle line of chryslers new <unknown> division'
p523
aS' home furnishings were its <unknown> line s last month and contributed'
p524
aS' <unknown> business for the <unknown> line s of <unknown> thomson <unknown>'
p525
aS' it is offering a new line of skin-treatment gels for use'
p526
aS' units . <unknown> own jeans line , the lee brand ,'
p527
aS' market in 1982 with a line of transportable computers , said'
p528
aS' the housekeeper and housekeeper plus line s have apparently contributed to'
p529
aS' their first <unknown> of a line of 25 gourmet food and'
p530
aS' from the sale of discontinued line s . end end end'
p531
aS' . , company a broader line of high-end chips . end'
p532
aS' after ibm introduced the ps/2 line , he now <unknown> the'
p533
aS' the middle of the ps/2 line and in the past was'
p534
aS' the middle of the ibm line . end end end end'
p535
aS' significant . the two model line s are expected to account'
p536
aS' largest producer in its specialty line s within the common market'
p537
aS' year for its coca-cola clothing line . end end end end'
p538
aS' in the newly introduced gm-10 line that gm is hoping will'
p539
aS' decided against building a new line of jeep vehicles at the'
p540
aS' . , which introduced a line of <unknown> <unknown> and <unknown>'
p541
aS' make up the highest-volume car line at chevrolet , but sales'
p542
aS' is expected to unveil a line of powerful ibm-compatible mainframes later'
p543
aS' . two <unknown> acquired a line of <unknown> <unknown> robots .'
p544
aS' in 1985 that kodaks <unknown> line of cameras <unknown> on seven'
p545
aS' be <unknown> challenging ibms new line in the big business market'
p546
aS' but beatrice has individual food line s , including swift meats'
p547
aS' the base price on its line of 1989 excel subcompact models'
p548
aS' <unknown> by its <unknown> <unknown> line , general <unknown> has <unknown>'
p549
aS' <unknown> the new sport shirt line , <unknown> <unknown> to <unknown>'
p550
aS' the profit potential in apparel line s . end end end'
p551
aS' . the companys other manufacturing line s , such as <unknown>'
p552
aS' and ship <unknown> shore fashion line s and monet jewelry unit'
p553
aS' . , <unknown> vacuum cleaner line s will fill a gap'
p554
aS' its introduction of the <unknown> line of mid-range computers , <unknown>'
p555
aS' acquisition of the spice islands line of spices , herbs and'
p556
aS' , <unknown> and a new line of <unknown> <unknown> . end'
p557
aS' products and building complementary specialty line s . end end end'
p558
aS' " with the companys current line s . end end end'
p559
aS' a two-year dispute involving a line of its cards that resemble'
p560
aS' independent suppliers of a broad line of computer systems: control data'
p561
aS' year . <unknown> introduced its line , all versions of a'
p562
aS' . already offers six car line s with standard <unknown> air'
p563
aS' start ibm introduced its ps/2 line last april , partially in'
p564
aS' when gm <unknown> its model line s and cut costs by'
p565
aS' to its own <unknown> over-the-counter line s and beef up its'
p566
aS' are expanding into the meat line s that are being <unknown>'
p567
aS' success of its cover girl line . end end end end'
p568
aS' it currently is testing a line of frozen entrees that include'
p569
aS' about to start selling new line s of renault cars .'
p570
aS' concentrate on apparel . discontinued line s accounted for <unknown> million'
p571
aS' <unknown> tools for the whole line . " end end end'
p572
aS' <unknown> to our 1988 toy line and are <unknown> <unknown> <unknown>'
p573
aS' both percentage figures include tandys line of computers that arent ibm-compatible'
p574
aS' a " more upscale " line of mens toiletries , probably'
p575
aS' that the gift and jewelry line s would <unknown> in the'
p576
aS' to start selling an exclusive line of <unknown> kitchen , <unknown>'
p577
aS' . <unknown> was <unknown> only line of <unknown> products . end'
p578
aS' some of bell & <unknown> line s could be a difficult'
p579
aS' <unknown> to american brands other line s . end end end'
p580
aS' sells <unknown> volkswagen and audi line s . end end end'
p581
aS' contending that hallmarks personal touch line of cards was too similar'
p582
aS' <unknown> <unknown> with kaos <unknown> line of skin <unknown> and its'
p583
aS' were creating the <unknown> spring line , the designers <unknown> to'
p584
aS' about <unknown> . other <unknown> line s include the <unknown> brands'
p585
aS' to <unknown> on its existing line s , which havent been'
p586
aS' fits well with its growing line of <unknown> publications . .'
p587
aS' were made for a new line of luxury cars . end'
p588
aS' its <unknown> <unknown> and vodka line to <unknown> from <unknown> .'
p589
aS' <unknown> <unknown> . briefs: a line of shoes for <unknown> women'
p590
aS' to <unknown> its extensive brand line . end end end end'
p591
aS' , not just the perfume line . end end end end'
p592
aS' inc . introduced a similar line called <unknown> choice . end'
p593
aS' the second half . the line , aimed at young men'
p594
aS' companies to <unknown> the ibm line with software and accessories .'
p595
aS' <unknown> . its developing a line of toys linked to "'
p596
aS' of <unknown> in its office-equipment line s . end end end'
p597
aS' <unknown> wear , said the line of <unknown> will be <unknown>'
p598
aS' , as the <unknown> dec line strengthened markets for many lines'
p599
aS' lucrative addition to its midrange line . end end end end'
p600
aS' plan production cuts of that line , the spokesman said .'
p601
aS' start clones of ibms new line of personal computers could appear'
p602
asS'text'
p603
(lp604
S' were looking at a <unknown> line , " says mr .'
p605
aS' faster than olivettis existing " line 1 " minicomputers . the'
p606
aS' tools and a few semiconductor line s did the world share'
p607
aS' the acquisition . the furniture line s could fetch about <unknown>'
p608
aS' a test tube . this line of <unknown> is now producing'
p609
aS' therefore profits , to different line s in a <unknown> firm'
p610
aS' , president , said the line s acquired from <unknown> would'
p611
aS' <unknown> . <unknown> . the line s planned for sale are'
p612
aS' companys traditional , <unknown> manufacturing line s . end end end'
p613
aS' itself with a premier <unknown> line . " end end end'
p614
aS' as extensive . " this line is a bit <unknown> ,'
p615
aS' unveiling her chicken by george line at a party with all'
p616
aS' <unknown> <unknown> out an <unknown> line of a single <unknown> <unknown>'
p617
asS'phone'
p618
(lp619
S' could lose on the spring line , " says mr .'
p620
aS' first <unknown> by <unknown> <unknown> line co . , a <unknown>'
p621
aS' steel distribution operations . the line s represent almost <unknown> of'
p622
aS' apparel fabrics and industrial fabrics line s . he would keep'
p623
aS' inc . , the struggling line was <unknown> . end end'
p624
aS' start a <unknown> spokesman dec line d to comment . <unknown>'
p625
asS'formation'
p626
(lp627
S' <unknown> means there is no line <unknown> in the budget labeled'
p628
aS' pricing against american buyers in line s where south <unknown> producers'
p629
aS' price , <unknown> in the line . end end end end'
p630
aS' standards air <unknown> and plumbing line s are a logical extension'
p631
aS' <unknown> werent disclosed . the line will be made in the'
p632
aS' in <unknown> , but the line of anatomically shaped chocolates had'
p633
assS'text'
p634
(dp635
S'cord'
p636
(lp637
S' on the <unknown> , a line delivered with vintage <unknown> <unknown>'
p638
aS' " he didnt deliver the line or even <unknown> to his'
p639
aS' <unknown> <unknown> <unknown> borrowed a line from his <unknown> , <unknown>'
p640
aS' her practice the last two line s on each <unknown> ,'
p641
aS' to judge by the throwaway line s in which he described'
p642
aS' which is written a single line . end end end end'
p643
aS' <unknown> who adds a <unknown> line to his <unknown> could wind'
p644
aS' isnt <unknown> , has a line at the top <unknown> it'
p645
aS' a few of their famous line s , but we get'
p646
aS' s . and carrying the line " the <unknown> <unknown> ,'
p647
aS' didnt get all the funny line s the first time and'
p648
aS' <unknown> <unknown> <unknown> <unknown> a line from the <unknown> , and'
p649
aS' a <unknown> <unknown> . her line s are <unknown> <unknown> but'
p650
asS'division'
p651
(lp652
S' passes along without comment the line that jim <unknown> , the'
p653
aS' where have we heard that line before ? end end end'
p654
asS'product'
p655
(lp656
S' <unknown> is <unknown> <unknown> new line s . end end end'
p657
aS' . <unknown> . <unknown> <unknown> line -- that drugs are more'
p658
aS' and mr . <unknown> <unknown> line s were also <unknown> <unknown>'
p659
aS' late 1989 and perhaps dec line significantly in later years ,'
p660
aS' producers give us such <unknown> line s as , " in'
p661
aS' of <unknown> . some <unknown> line s fell flat . end'
p662
aS' american express , <unknown> the line s of other <unknown> "'
p663
aS' his classic <unknown> with some line about " <unknown> for other'
p664
aS' the <unknown> plan was <unknown> line by line . end end'
p665
aS' as the <unknown> <unknown> these line s , at least three'
p666
aS' in the <unknown> of <unknown> line he simply cant <unknown> .'
p667
aS' some great <unknown> and clever line s : for example ,'
p668
aS' got off the best <unknown> line ive heard . end end'
p669
aS' and the <unknown> of <unknown> line s only <unknown> and <unknown>'
p670
asS'text'
p671
(lp672
S' own personal <unknown> of immortal line s like " <unknown> ,'
p673
aS' out of <unknown> despite the line s mr . <unknown> has'
p674
aS' <unknown> <unknown> . " the line stuck with her -- "'
p675
aS' <unknown> , he utters the line s that <unknown> the <unknown>'
p676
aS' mountain goat . his favorite line : " id like to'
p677
aS' , <unknown> <unknown> cookie containing line s from a poet ,'
p678
aS' the japanese <unknown> deliver their line s in <unknown> , whether'
p679
aS' in particular wont <unknown> that line : the woman from <unknown>'
p680
aS' until a single , <unknown> line from <unknown> <unknown> <unknown> it'
p681
aS' " is the only memorable line to come out of this'
p682
aS' <unknown> , characters , famous line s and <unknown> <unknown> arent'
p683
aS' ! " each time a line of the song <unknown> the'
p684
aS' , <unknown> for borrowing <unknown> line s from a <unknown> speech'
p685
aS' in other things . that line in the wedding <unknown> about'
p686
aS' i <unknown> with such old line s as: " want to'
p687
aS' <unknown> mr . <unknown> . line by line mr . <unknown>'
p688
aS' mr . <unknown> <unknown> three line s of a <unknown> by'
p689
aS' <unknown> . with a snappy line about how mr . bush'
p690
aS' by finding <unknown> with every line of <unknown> dialogue , <unknown>'
p691
aS' <unknown> were a <unknown> of line s in which <unknown> <unknown>'
p692
aS' days later , reading a line inserted in a speech by'
p693
aS' start start start those <unknown> line s tell much about the'
p694
aS' <unknown> " <unknown> history " line , a borrowing mr .'
p695
aS' " sometimes , its a line from the script . end'
p696
aS' get off a few good line s . end end end'
p697
aS' <unknown> down a particularly good line , says her husband ,'
p698
aS' so you can write their line s . " end end'
p699
aS' necessarily <unknown> . youre <unknown> line s such as: " a'
p700
aS' you use dial ? " line a few years ago .'
p701
aS' life of them deliver a line . " end end end'
p702
aS' is supposed to read two line s : " im the'
p703
aS' <unknown> debut with " three line s and a great <unknown>'
p704
aS' . <unknown> apparently added a line <unknown> that <unknown> <unknown> employees'
p705
aS' . he had some good line s too , including the'
p706
aS' it <unknown> <unknown> a party line -- no less but no'
p707
aS' the <unknown> at least one line <unknown> <unknown> , " said'
p708
aS' he was an <unknown> reading line s , who didnt understand'
p709
aS' <unknown> offers . borrowing a line from corporate <unknown> , mr'
p710
aS' how she had taken a line -- the silver-foot-in-the-mouth one --'
p711
aS' <unknown> no new taxes " line after the election . end'
p712
aS' <unknown> <unknown> the famous last line was , " now for'
p713
aS' it sounds more like a line , some say , that'
p714
aS' " an <unknown> of first line s . end end end'
p715
aS' . the ad <unknown> a line from a letter written in'
p716
aS' arm , <unknown> <unknown> and line s like: " my <unknown>'
p717
aS' new year , including these line s : end end end'
p718
aS' <unknown> , but nary a line in the <unknown> <unknown> ,'
p719
aS' mr . <unknown> own applause line , <unknown> <unknown> in wisconsin'
p720
asS'phone'
p721
(lp722
S' had not struck through certain line s on the <unknown> <unknown>'
p723
asS'formation'
p724
(lp725
S' its <unknown> to hear the line s <unknown> <unknown> of the'
p726
aS' for <unknown> . " the line at the <unknown> is ,'
p727
assS'phone'
p728
(dp729
S'cord'
p730
(lp731
S' how long theyre on the line . end end end end'
p732
aS' was a <unknown> on the line that might have been his'
p733
aS' to try him on that line if he could not be'
p734
aS' put a test on your line , and <unknown> let you'
p735
aS' and came back on the line with the news that the'
p736
aS' <unknown> , was on the line <unknown> him over to the'
p737
aS' call to the <unknown> emergency line , <unknown> at the trial'
p738
asS'division'
p739
(lp740
S' to be calling the tip line are wall street brokers ,'
p741
aS' that was all . the line died . end end end'
p742
asS'product'
p743
(lp744
S' , <unknown> provides a toll-free line for its customers calls .'
p745
aS' of the <unknown> & investors line and the growing attention being'
p746
aS' and there is no " line <unknown> " as such .'
p747
aS' <unknown> it has 10 million line s in service , with'
p748
aS' of your patients on another line . end end end end'
p749
aS' strong california economy , stream line d operations and its early'
p750
aS' start start start it dec line d to disclose the number'
p751
aS' the monitor on <unknown> <unknown> line recently got the <unknown> rolling'
p752
aS' punched the button for <unknown> line , waited a <unknown> ,'
p753
asS'text'
p754
(lp755
S' marketing . still , the line s are far from a'
p756
aS' system would allow a movie line , for example , to'
p757
asS'phone'
p758
(lp759
S' than <unknown> , 000 telephone line s in the quarter ,'
p760
aS' the installation of new telephone line s in the quarter .'
p761
aS' the other end of the line that ann <unknown> <unknown> had'
p762
aS' telephone <unknown> , but all line s were out . end'
p763
aS' get an <unknown> on the line and get <unknown> <unknown> to'
p764
aS' for about 442 , 000 line s in <unknown> , and'
p765
aS' <unknown> late , and telephone line s into the los angeles'
p766
aS' using either <unknown> or dedicated line s . end end end'
p767
aS' the other end of the line was john <unknown> <unknown> ,'
p768
aS' permitted to say . the line went dead . end end'
p769
aS' , distributed software by telephone line s from a central location'
p770
aS' , has established toll-free complaint line s , and has <unknown>'
p771
aS' <unknown> has been in sex line s and gab lines ,'
p772
aS' . brokers had been seeking line s to the fed since'
p773
aS' send still pictures over <unknown> line s . the user sits'
p774
aS' serves 5 , 300 access line s near <unknown> . <unknown>'
p775
aS' to dial-a-porn services , gab line s and general <unknown> services'
p776
aS' handling 100 or more telephone line s , according to <unknown>'
p777
aS' <unknown> <unknown> was on the line , asking mr . <unknown>'
p778
aS' growth volume for new telephone line s since the great <unknown>'
p779
aS' vice president was on the line . end end end end'
p780
aS' a lack of necessary telephone line s . end end end'
p781
aS' includes 40 , 000 telephone line s , in a system'
p782
aS' set up a telephone hot line to help with the <unknown>'
p783
aS' " sellers came on the line . end end end end'
p784
aS' with dead air on the line between them . end end'
p785
aS' 14 . 3 million access line s in service at the'
p786
aS' and growth in new telephone line s helped revenue <unknown> <unknown>'
p787
aS' . callers on a gab line are just talking to one'
p788
aS' a central computer through telephone line s and to <unknown> a'
p789
aS' growth in telephone and cellular line s and a <unknown> gain'
p790
aS' a <unknown> voice on the line , says steven <unknown> ,'
p791
aS' and a special 900 telephone line called " soap <unknown> .'
p792
aS' business segment , new telephone line s increased by <unknown> .'
p793
aS' more than 570 , 000 line s , mainly in western-central'
p794
aS' call was switched , the line was dead . end end'
p795
aS' bill <unknown> came on the line . end end end end'
p796
aS' the only one on the line . end end end end'
p797
aS' market funds after the telephone line s <unknown> at <unknown> a'
p798
aS' the other end of the line , " mr . <unknown>'
p799
aS' <unknown> , 000 new access line s were added in its'
p800
aS' the other end of the line , " <unknown> <unknown> .'
p801
aS' the other end of the line was that of <unknown> <unknown>'
p802
aS' high prices for private telephone line s used in communications networks'
p803
aS' that it was an outside line , and so <unknown> took'
p804
aS' news service . over telephone line s , each service <unknown>'
p805
aS' in the number of access line s in service . end'
p806
aS' an <unknown> <unknown> and the line went dead . end end'
p807
aS' equipment and leased long-distance telephone line s that link 1 .'
p808
aS' to answer the phone . line s <unknown> go dead ,'
p809
aS' that customers have a direct line to the company , <unknown>'
p810
aS' later <unknown> was on the line . end end end end'
p811
aS' <unknown> the telephone . the line was dead . end end'
p812
aS' a home computer over telephone line s . end end end'
p813
aS' , keeping him on the line . end end end end'
p814
aS' have to <unknown> on telephone line s , which often are'
p815
aS' the other end of the line lets call him <unknown> <unknown>'
p816
aS' <unknown> the " gab " line , a service that dozens'
p817
aS' . banks with direct trading line s to the federal reserve'
p818
aS' . <unknown> was on the line . end end end end'
p819
aS' his home number . the line was busy , so he'
p820
aS' of callers stay on the line to order it . end'
p821
aS' <unknown> to increase the subscriber- line charge by a total of'
p822
asS'formation'
p823
(lp824
S' could simply block a residents line at his request so that'
p825
aS' another voice cut into the line . end end end end'
p826
assS'formation'
p827
(dp828
S'cord'
p829
(lp830
S' a coca-cola truck <unknown> the line . end end end end'
p831
aS' from <unknown> <unknown> , and line s <unknown> onto the parks'
p832
aS' <unknown> . <unknown> by the line s at the book fair'
p833
asS'text'
p834
(lp835
S' water <unknown> . " the line they were in was in'
p836
asS'product'
p837
(lp838
S' , the <unknown> of food line s . end end end'
p839
aS' miss the <unknown> weekend soup line s , which <unknown> their'
p840
aS' the end of the <unknown> line <unknown> by police to <unknown>'
p841
aS' during <unknown> . the only line is outside the mens --'
p842
aS' were more than 100 people line d up to enter f'
p843
aS' run before forming two <unknown> line s that stretch from one'
p844
aS' by industry sources to have line d up several institutions and'
p845
aS' marketing <unknown> , <unknown> food line s could start to <unknown>'
p846
aS' this <unknown> <unknown> new <unknown> line for employees used to meeting'
p847
aS' plants <unknown> " wont create line s at the <unknown> pumps'
p848
aS' <unknown> <unknown> behind a weak line , young threw almost twice'
p849
aS' <unknown> last legal <unknown> . line s of trucks snake up'
p850
asS'formation'
p851
(lp852
S' of <unknown> customers in long line s at <unknown> <unknown> .'
p853
aS' to the head of a line as though i dont know'
p854
aS' stores will be first in line for <unknown> when a big'
p855
aS' about crowded <unknown> and long line s at the park .'
p856
aS' russian consumers now wait in line to buy <unknown> at a'
p857
aS' . they havent reached food line s <unknown> this is a'
p858
aS' and sold in supermarket checkout line s . end end end'
p859
aS' <unknown> house , joining a line of <unknown> <unknown> in on'
p860
aS' speeding approval of the long line of companies wanting to issue'
p861
aS' and says , " the line s at the bank are'
p862
aS' stores , waiting in long line s , being <unknown> by'
p863
aS' to cut into the <unknown> line and get ms . white'
p864
aS' <unknown> of <unknown> wait in line for their childrens report cards'
p865
aS' been able to find a line of people waiting to enter'
p866
aS' . there she waited in line for more than eight hours'
p867
aS' at the left of the line , the one who had'
p868
aS' rose while he waited in line to buy it . end'
p869
aS' he has to get in line like everyone else , "'
p870
aS' to <unknown> notes . checkout line s slow to a <unknown>'
p871
aS' , im <unknown> of long line s at the bank during'
p872
aS' travelers . passengers <unknown> long line s for tickets , <unknown>'
p873
aS' we boys would wait in line to <unknown> slow numbers with'
p874
aS' long wait in a slow line at the <unknown> booth ,'
p875
aS' <unknown> to be first in line . end end end end'
p876
aS' 15 <unknown> , creating long line s and stopping work .'
p877
aS' shoppers stand in yet another line . end end end end'
p878
aS' , " they <unknown> the line of <unknown> back through <unknown>'
p879
aS' <unknown> have to get in line behind <unknown> <unknown> , "'
p880
aS' increasing the average wait in line to three hours . end'
p881
aS' the stuff than wait in line for a free album .'
p882
aS' or must wait in long line s to get through exit'
p883
aS' that there was a long line of cases allowing tax losses'
p884
aS' bulbs to read a long line of wall <unknown> , some'
p885
aS' have been stuck in <unknown> line s at customs and immigration'
p886
aS' to secure a place in line for the <unknown> <unknown> .'
p887
aS' thinks it can shorten the line s for clearing customs --'
p888
aS' groups of <unknown> wait in line for <unknown> and <unknown> service'
p889
aS' even the <unknown> in checkout line s , this <unknown> of'
p890
aS' the first of a long line of presidents to <unknown> on'
p891
aS' to the front of the line . " end end end'
p892
aS' but the first group in line for the aid is the'
p893
aS' <unknown> would indeed shorten the line s at stores , as'
p894
aS' of <unknown> are <unknown> long line s , <unknown> weather and'
p895
aS' he took his place in line at midnight . end end'
p896
aS' <unknown> <unknown> into express checkout line s . end end end'
p897
aS' giving up its <unknown> in line for the new planes .'
p898
aS' " why arent you in line applying for <unknown> ? "'
p899
aS' says that in <unknown> the line s of <unknown> at <unknown>'
p900
aS' this by standing longer in line for scarce consumer goods .'
p901
asS'phone'
p902
(lp903
S' <unknown> , the number of line <unknown> <unknown> is <unknown> .'
p904
aS' the <unknown> markets . he line s up <unknown> outside state'
p905
aS' as he <unknown> , new line s formed , and for'
p906
aS' to keep watch on the line s of customers <unknown> around'
p907
ass.